target datalayout = "e-m:e-p270:32:32-p271:32:32-p272:64:64-i64:64-i128:128-f80:128-n8:16:32:64-S128"
target triple = "x86_64-pc-linux-gnu"

@.str.3 = private unnamed_addr constant [8 x i8] c"userval\00", align 1

; Function Attrs: nounwind uwtable
define ptr @openNode(ptr noundef %0, ptr noundef %1) #0 {
  %3 = alloca ptr, align 8
  %4 = alloca ptr, align 8
  %5 = alloca ptr, align 8
  store ptr %0, ptr %3, align 8, !tbaa !92
  store ptr %1, ptr %4, align 8, !tbaa !7
  call void @llvm.lifetime.start.p0(i64 8, ptr %5) #16
  %6 = load ptr, ptr %3, align 8, !tbaa !92
  %7 = load ptr, ptr %4, align 8, !tbaa !7
  %8 = call ptr @agnode(ptr noundef %6, ptr noundef %7, i32 noundef 1)
  store ptr %8, ptr %5, align 8, !tbaa !93
  %9 = load ptr, ptr %5, align 8, !tbaa !93
  %10 = icmp ne ptr %9, null
  br i1 %10, label %11, label %18

11:                                               ; preds = %2
  %12 = load ptr, ptr %5, align 8, !tbaa !93
  %13 = call ptr @aggetrec(ptr noundef %12, ptr noundef @.str.3, i32 noundef 0)
  %14 = icmp ne ptr %13, null
  br i1 %14, label %18, label %15

15:                                               ; preds = %11
  %16 = load ptr, ptr %5, align 8, !tbaa !93
  %17 = call ptr @agbindrec(ptr noundef %16, ptr noundef @.str.3, i32 noundef 32, i32 noundef 0)
  br label %18

18:                                               ; preds = %15, %11, %2
  %19 = load ptr, ptr %5, align 8, !tbaa !93
  call void @llvm.lifetime.end.p0(i64 8, ptr %5) #16
  ret ptr %19
}