; Function Attrs: nounwind uwtable
define ptr @openNode(ptr noundef %0, ptr noundef %1) local_unnamed_addr #0 {
  %3 = tail call ptr @agnode(ptr noundef %0, ptr noundef %1, i32 noundef 1) #25
  %.not = icmp eq ptr %3, null
  br i1 %.not, label %8, label %4

4:                                                ; preds = %2
  %5 = tail call ptr @aggetrec(ptr noundef nonnull %3, ptr noundef nonnull @.str.3, i32 noundef 0) #25
  %.not6 = icmp eq ptr %5, null
  br i1 %.not6, label %6, label %8

6:                                                ; preds = %4
  %7 = tail call ptr @agbindrec(ptr noundef nonnull %3, ptr noundef nonnull @.str.3, i32 noundef 32, i32 noundef 0) #25
  br label %8

8:                                                ; preds = %6, %4, %2
  ret ptr %3
}